; ModuleID = '39/2284.c'
source_filename = "39/2284.c"
target datalayout = "e-m:e-p270:32:32-p271:32:32-p272:64:64-i64:64-f80:128-n8:16:32:64-S128"
target triple = "x86_64-pc-linux-gnu"

%struct.student = type { [20 x i8], i32, i32, i8, i8, i32 }

@.str = private unnamed_addr constant [3 x i8] c"%d\00", align 1
@stu = common dso_local global [100 x %struct.student] zeroinitializer, align 16
@.str.1 = private unnamed_addr constant [18 x i8] c"%s %d %d %c %c %d\00", align 1
@.str.2 = private unnamed_addr constant [10 x i8] c"%s\0A%d\0A%d\0A\00", align 1

; Function Attrs: noinline nounwind uwtable
define dso_local void @main() #0 {
  %1 = alloca i32, align 4
  %2 = alloca i32, align 4
  %3 = alloca [100 x i32], align 16
  %4 = alloca i32, align 4
  %5 = alloca i32, align 4
  %6 = alloca i32, align 4
  %7 = alloca %struct.student*, align 8
  %8 = bitcast [100 x i32]* %3 to i8*
  call void @llvm.memset.p0i8.i64(i8* align 16 %8, i8 0, i64 400, i1 false)
  store i32 0, i32* %4, align 4
  %9 = call i32 (i8*, ...) @__isoc99_scanf(i8* getelementptr inbounds ([3 x i8], [3 x i8]* @.str, i64 0, i64 0), i32* %1)
  store %struct.student* getelementptr inbounds ([100 x %struct.student], [100 x %struct.student]* @stu, i64 0, i64 0), %struct.student** %7, align 8
  store i32 0, i32* %2, align 4
  br label %10

10:                                               ; preds = %108, %0
  %11 = load %struct.student*, %struct.student** %7, align 8
  %12 = load i32, i32* %1, align 4
  %13 = sext i32 %12 to i64
  %14 = getelementptr inbounds %struct.student, %struct.student* getelementptr inbounds ([100 x %struct.student], [100 x %struct.student]* @stu, i64 0, i64 0), i64 %13
  %15 = icmp ult %struct.student* %11, %14
  br i1 %15, label %16, label %113

16:                                               ; preds = %10
  %17 = load %struct.student*, %struct.student** %7, align 8
  %18 = getelementptr inbounds %struct.student, %struct.student* %17, i32 0, i32 0
  %19 = getelementptr inbounds [20 x i8], [20 x i8]* %18, i64 0, i64 0
  %20 = load %struct.student*, %struct.student** %7, align 8
  %21 = getelementptr inbounds %struct.student, %struct.student* %20, i32 0, i32 1
  %22 = load %struct.student*, %struct.student** %7, align 8
  %23 = getelementptr inbounds %struct.student, %struct.student* %22, i32 0, i32 2
  %24 = load %struct.student*, %struct.student** %7, align 8
  %25 = getelementptr inbounds %struct.student, %struct.student* %24, i32 0, i32 3
  %26 = load %struct.student*, %struct.student** %7, align 8
  %27 = getelementptr inbounds %struct.student, %struct.student* %26, i32 0, i32 4
  %28 = load %struct.student*, %struct.student** %7, align 8
  %29 = getelementptr inbounds %struct.student, %struct.student* %28, i32 0, i32 5
  %30 = call i32 (i8*, ...) @__isoc99_scanf(i8* getelementptr inbounds ([18 x i8], [18 x i8]* @.str.1, i64 0, i64 0), i8* %19, i32* %21, i32* %23, i8* %25, i8* %27, i32* %29)
  %31 = load %struct.student*, %struct.student** %7, align 8
  %32 = getelementptr inbounds %struct.student, %struct.student* %31, i32 0, i32 1
  %33 = load i32, i32* %32, align 4
  %34 = icmp sgt i32 %33, 80
  br i1 %34, label %35, label %46

35:                                               ; preds = %16
  %36 = load %struct.student*, %struct.student** %7, align 8
  %37 = getelementptr inbounds %struct.student, %struct.student* %36, i32 0, i32 5
  %38 = load i32, i32* %37, align 4
  %39 = icmp sge i32 %38, 1
  br i1 %39, label %40, label %46

40:                                               ; preds = %35
  %41 = load i32, i32* %2, align 4
  %42 = sext i32 %41 to i64
  %43 = getelementptr inbounds [100 x i32], [100 x i32]* %3, i64 0, i64 %42
  %44 = load i32, i32* %43, align 4
  %45 = add nsw i32 %44, 8000
  store i32 %45, i32* %43, align 4
  br label %46

46:                                               ; preds = %40, %35, %16
  %47 = load %struct.student*, %struct.student** %7, align 8
  %48 = getelementptr inbounds %struct.student, %struct.student* %47, i32 0, i32 1
  %49 = load i32, i32* %48, align 4
  %50 = icmp sgt i32 %49, 85
  br i1 %50, label %51, label %62

51:                                               ; preds = %46
  %52 = load %struct.student*, %struct.student** %7, align 8
  %53 = getelementptr inbounds %struct.student, %struct.student* %52, i32 0, i32 2
  %54 = load i32, i32* %53, align 4
  %55 = icmp sgt i32 %54, 80
  br i1 %55, label %56, label %62

56:                                               ; preds = %51
  %57 = load i32, i32* %2, align 4
  %58 = sext i32 %57 to i64
  %59 = getelementptr inbounds [100 x i32], [100 x i32]* %3, i64 0, i64 %58
  %60 = load i32, i32* %59, align 4
  %61 = add nsw i32 %60, 4000
  store i32 %61, i32* %59, align 4
  br label %62

62:                                               ; preds = %56, %51, %46
  %63 = load %struct.student*, %struct.student** %7, align 8
  %64 = getelementptr inbounds %struct.student, %struct.student* %63, i32 0, i32 1
  %65 = load i32, i32* %64, align 4
  %66 = icmp sgt i32 %65, 90
  br i1 %66, label %67, label %73

67:                                               ; preds = %62
  %68 = load i32, i32* %2, align 4
  %69 = sext i32 %68 to i64
  %70 = getelementptr inbounds [100 x i32], [100 x i32]* %3, i64 0, i64 %69
  %71 = load i32, i32* %70, align 4
  %72 = add nsw i32 %71, 2000
  store i32 %72, i32* %70, align 4
  br label %73

73:                                               ; preds = %67, %62
  %74 = load %struct.student*, %struct.student** %7, align 8
  %75 = getelementptr inbounds %struct.student, %struct.student* %74, i32 0, i32 1
  %76 = load i32, i32* %75, align 4
  %77 = icmp sgt i32 %76, 85
  br i1 %77, label %78, label %90

78:                                               ; preds = %73
  %79 = load %struct.student*, %struct.student** %7, align 8
  %80 = getelementptr inbounds %struct.student, %struct.student* %79, i32 0, i32 4
  %81 = load i8, i8* %80, align 1
  %82 = sext i8 %81 to i32
  %83 = icmp eq i32 %82, 89
  br i1 %83, label %84, label %90

84:                                               ; preds = %78
  %85 = load i32, i32* %2, align 4
  %86 = sext i32 %85 to i64
  %87 = getelementptr inbounds [100 x i32], [100 x i32]* %3, i64 0, i64 %86
  %88 = load i32, i32* %87, align 4
  %89 = add nsw i32 %88, 1000
  store i32 %89, i32* %87, align 4
  br label %90

90:                                               ; preds = %84, %78, %73
  %91 = load %struct.student*, %struct.student** %7, align 8
  %92 = getelementptr inbounds %struct.student, %struct.student* %91, i32 0, i32 2
  %93 = load i32, i32* %92, align 4
  %94 = icmp sgt i32 %93, 80
  br i1 %94, label %95, label %107

95:                                               ; preds = %90
  %96 = load %struct.student*, %struct.student** %7, align 8
  %97 = getelementptr inbounds %struct.student, %struct.student* %96, i32 0, i32 3
  %98 = load i8, i8* %97, align 4
  %99 = sext i8 %98 to i32
  %100 = icmp eq i32 %99, 89
  br i1 %100, label %101, label %107

101:                                              ; preds = %95
  %102 = load i32, i32* %2, align 4
  %103 = sext i32 %102 to i64
  %104 = getelementptr inbounds [100 x i32], [100 x i32]* %3, i64 0, i64 %103
  %105 = load i32, i32* %104, align 4
  %106 = add nsw i32 %105, 850
  store i32 %106, i32* %104, align 4
  br label %107

107:                                              ; preds = %101, %95, %90
  br label %108

108:                                              ; preds = %107
  %109 = load %struct.student*, %struct.student** %7, align 8
  %110 = getelementptr inbounds %struct.student, %struct.student* %109, i32 1
  store %struct.student* %110, %struct.student** %7, align 8
  %111 = load i32, i32* %2, align 4
  %112 = add nsw i32 %111, 1
  store i32 %112, i32* %2, align 4
  br label %10

113:                                              ; preds = %10
  %114 = getelementptr inbounds [100 x i32], [100 x i32]* %3, i64 0, i64 0
  %115 = load i32, i32* %114, align 16
  store i32 %115, i32* %6, align 4
  store i32 0, i32* %2, align 4
  br label %116

116:                                              ; preds = %140, %113
  %117 = load i32, i32* %2, align 4
  %118 = load i32, i32* %1, align 4
  %119 = icmp slt i32 %117, %118
  br i1 %119, label %120, label %143

120:                                              ; preds = %116
  %121 = load i32, i32* %2, align 4
  %122 = sext i32 %121 to i64
  %123 = getelementptr inbounds [100 x i32], [100 x i32]* %3, i64 0, i64 %122
  %124 = load i32, i32* %123, align 4
  %125 = load i32, i32* %4, align 4
  %126 = add nsw i32 %125, %124
  store i32 %126, i32* %4, align 4
  %127 = load i32, i32* %2, align 4
  %128 = sext i32 %127 to i64
  %129 = getelementptr inbounds [100 x i32], [100 x i32]* %3, i64 0, i64 %128
  %130 = load i32, i32* %129, align 4
  %131 = load i32, i32* %6, align 4
  %132 = icmp sgt i32 %130, %131
  br i1 %132, label %133, label %139

133:                                              ; preds = %120
  %134 = load i32, i32* %2, align 4
  %135 = sext i32 %134 to i64
  %136 = getelementptr inbounds [100 x i32], [100 x i32]* %3, i64 0, i64 %135
  %137 = load i32, i32* %136, align 4
  store i32 %137, i32* %6, align 4
  %138 = load i32, i32* %2, align 4
  store i32 %138, i32* %5, align 4
  br label %139

139:                                              ; preds = %133, %120
  br label %140

140:                                              ; preds = %139
  %141 = load i32, i32* %2, align 4
  %142 = add nsw i32 %141, 1
  store i32 %142, i32* %2, align 4
  br label %116

143:                                              ; preds = %116
  %144 = load i32, i32* %5, align 4
  %145 = sext i32 %144 to i64
  %146 = getelementptr inbounds [100 x %struct.student], [100 x %struct.student]* @stu, i64 0, i64 %145
  %147 = getelementptr inbounds %struct.student, %struct.student* %146, i32 0, i32 0
  %148 = getelementptr inbounds [20 x i8], [20 x i8]* %147, i64 0, i64 0
  %149 = load i32, i32* %5, align 4
  %150 = sext i32 %149 to i64
  %151 = getelementptr inbounds [100 x i32], [100 x i32]* %3, i64 0, i64 %150
  %152 = load i32, i32* %151, align 4
  %153 = load i32, i32* %4, align 4
  %154 = call i32 (i8*, ...) @printf(i8* getelementptr inbounds ([10 x i8], [10 x i8]* @.str.2, i64 0, i64 0), i8* %148, i32 %152, i32 %153)
  ret void
}

; Function Attrs: argmemonly nounwind willreturn
declare void @llvm.memset.p0i8.i64(i8* nocapture writeonly, i8, i64, i1 immarg) #1

declare dso_local i32 @__isoc99_scanf(i8*, ...) #2

declare dso_local i32 @printf(i8*, ...) #2


!llvm.module.flags = !{!0}
!llvm.ident = !{!1}

!0 = !{i32 1, !"wchar_size", i32 4}
!1 = !{!"clang version 10.0.0-4ubuntu1 "}
